target datalayout = "e-m:e-p270:32:32-p271:32:32-p272:64:64-i64:64-i128:128-f80:128-n8:16:32:64-S128"
target triple = "x86_64-pc-linux-gnu"

@.str.14 = private unnamed_addr constant [36 x i8] c"../openssl/test/ssl_test_ctx_test.c\00", align 1
@conf = internal global ptr null, align 8
@.str.92 = private unnamed_addr constant [63 x i8] c"ctx = SSL_TEST_CTX_create(conf, bad_configurations[idx], NULL)\00", align 1
@bad_configurations = internal global [16 x ptr] [ptr @.str.93, ptr @.str.94, ptr @.str.95, ptr @.str.96, ptr @.str.97, ptr @.str.98, ptr @.str.99, ptr @.str.100, ptr @.str.101, ptr @.str.102, ptr @.str.103, ptr @.str.104, ptr @.str.105, ptr @.str.106, ptr @.str.107, ptr @.str.108], align 16

; Function Attrs: nounwind uwtable
define internal i32 @test_bad_configuration(i32 noundef %0) #0 {
  %2 = alloca i32, align 4
  %3 = alloca i32, align 4
  %4 = alloca ptr, align 8
  %5 = alloca i32, align 4
  store i32 %0, ptr %3, align 4, !tbaa !11
  call void @llvm.lifetime.start.p0(i64 8, ptr %4) #3
  %6 = load ptr, ptr @conf, align 8, !tbaa !4
  %7 = load i32, ptr %3, align 4, !tbaa !11
  %8 = sext i32 %7 to i64
  %9 = getelementptr inbounds [16 x ptr], ptr @bad_configurations, i64 0, i64 %8
  %10 = load ptr, ptr %9, align 8, !tbaa !44
  %11 = call ptr @SSL_TEST_CTX_create(ptr noundef %6, ptr noundef %10, ptr noundef null)
  store ptr %11, ptr %4, align 8, !tbaa !45
  %12 = call i32 @test_ptr_null(ptr noundef @.str.14, i32 noundef 232, ptr noundef @.str.92, ptr noundef %11)
  %13 = icmp ne i32 %12, 0
  br i1 %13, label %16, label %14

14:                                               ; preds = %1
  %15 = load ptr, ptr %4, align 8, !tbaa !45
  call void @SSL_TEST_CTX_free(ptr noundef %15)
  store i32 0, ptr %2, align 4
  store i32 1, ptr %5, align 4
  br label %17

16:                                               ; preds = %1
  store i32 1, ptr %2, align 4
  store i32 1, ptr %5, align 4
  br label %17

17:                                               ; preds = %16, %14
  call void @llvm.lifetime.end.p0(i64 8, ptr %4) #3
  %18 = load i32, ptr %2, align 4
  ret i32 %18
}