; Function Attrs: nounwind uwtable
define internal range(i32 0, 2) i32 @test_bad_configuration(i32 noundef %0) #1 {
  %2 = load ptr, ptr @conf, align 8, !tbaa !4
  %3 = sext i32 %0 to i64
  %4 = getelementptr inbounds [16 x ptr], ptr @bad_configurations, i64 0, i64 %3
  %5 = load ptr, ptr %4, align 8, !tbaa !42
  %6 = tail call ptr @SSL_TEST_CTX_create(ptr noundef %2, ptr noundef %5, ptr noundef null) #3
  %7 = tail call i32 @test_ptr_null(ptr noundef nonnull @.str.14, i32 noundef 232, ptr noundef nonnull @.str.92, ptr noundef %6) #3
  %.not = icmp eq i32 %7, 0
  br i1 %.not, label %8, label %9

8:                                                ; preds = %1
  tail call void @SSL_TEST_CTX_free(ptr noundef %6) #3
  br label %9

9:                                                ; preds = %1, %8
  %.0 = phi i32 [ 0, %8 ], [ 1, %1 ]
  ret i32 %.0
}